; Function Attrs: nounwind uwtable
define noalias nonnull ptr @l_Lake_BuildTrace_instCoeHash___boxed(ptr noundef %0) local_unnamed_addr #0 {
  %2 = getelementptr i8, ptr %0, i64 8
  %.val = load i64, ptr %2, align 8, !tbaa !15
  %3 = ptrtoint ptr %0 to i64
  %4 = and i64 %3, 1
  %.not = icmp eq i64 %4, 0
  br i1 %.not, label %5, label %lean_dec.exit

5:                                                ; preds = %1
  %6 = load i32, ptr %0, align 4, !tbaa !4
  %7 = icmp sgt i32 %6, 1
  br i1 %7, label %8, label %10, !prof !13

8:                                                ; preds = %5
  %9 = add nsw i32 %6, -1
  store i32 %9, ptr %0, align 4, !tbaa !4
  br label %lean_dec.exit

10:                                               ; preds = %5
  %.not.i = icmp eq i32 %6, 0
  br i1 %.not.i, label %lean_dec.exit, label %11

11:                                               ; preds = %10
  tail call void @lean_dec_ref_cold(ptr noundef nonnull %0) #4
  br label %lean_dec.exit

lean_dec.exit:                                    ; preds = %11, %10, %8, %1
  %12 = load ptr, ptr @l_Lake_BuildTrace_instCoeHash___closed__1, align 8, !tbaa !9
  %13 = load ptr, ptr @l_Lake_BuildTrace_withoutInputs___closed__1, align 8, !tbaa !9
  %14 = load ptr, ptr @l_Lake_MTime_instOfNat___closed__2, align 8, !tbaa !9
  tail call void @lean_inc_heartbeat() #4
  %15 = tail call noalias ptr @mi_malloc_small(i64 noundef 16) #4
  %16 = icmp eq ptr %15, null
  br i1 %16, label %17, label %lean_box_uint64.exit.i

17:                                               ; preds = %lean_dec.exit
  tail call void @lean_internal_panic_out_of_memory() #5
  unreachable

lean_box_uint64.exit.i:                           ; preds = %lean_dec.exit
  %18 = getelementptr inbounds nuw i8, ptr %15, i64 4
  store i32 1, ptr %15, align 4, !tbaa !4
  store i32 16, ptr %18, align 4
  %19 = getelementptr inbounds nuw i8, ptr %15, i64 8
  store i64 %.val, ptr %19, align 8, !tbaa !15
  tail call void @lean_inc_heartbeat() #4
  %20 = tail call noalias ptr @mi_malloc_small(i64 noundef 40) #4
  %21 = icmp eq ptr %20, null
  br i1 %21, label %22, label %l_Lake_BuildTrace_instCoeHash.exit

22:                                               ; preds = %lean_box_uint64.exit.i
  tail call void @lean_internal_panic_out_of_memory() #5
  unreachable

l_Lake_BuildTrace_instCoeHash.exit:               ; preds = %lean_box_uint64.exit.i
  %23 = getelementptr inbounds nuw i8, ptr %20, i64 4
  store i32 1, ptr %20, align 4, !tbaa !4
  store i32 262184, ptr %23, align 4
  %24 = getelementptr inbounds nuw i8, ptr %20, i64 8
  store ptr %12, ptr %24, align 8, !tbaa !9
  %25 = getelementptr inbounds nuw i8, ptr %20, i64 16
  store ptr %13, ptr %25, align 8, !tbaa !9
  %26 = getelementptr inbounds nuw i8, ptr %20, i64 24
  store ptr %15, ptr %26, align 8, !tbaa !9
  %27 = getelementptr inbounds nuw i8, ptr %20, i64 32
  store ptr %14, ptr %27, align 8, !tbaa !9
  ret ptr %20
}